; Function Attrs: nounwind uwtable
define internal fastcc i32 @ossl_property_string(ptr noundef %0, i32 noundef range(i32 0, 2) %1, i32 noundef %2, ptr noundef %3) unnamed_addr #0 {
  %5 = alloca %struct.PROPERTY_STRING, align 8
  call void @llvm.lifetime.start.p0(i64 16, ptr nonnull %5) #8
  %6 = tail call ptr @ossl_lib_ctx_get_data(ptr noundef %0, i32 noundef 3) #8
  %7 = icmp eq ptr %6, null
  br i1 %7, label %.thread, label %8

8:                                                ; preds = %4
  %.not = icmp eq i32 %1, 0
  %.in.v = select i1 %.not, i64 16, i64 8
  %.in = getelementptr inbounds nuw i8, ptr %6, i64 %.in.v
  %9 = load ptr, ptr %.in, align 8, !tbaa !11
  store ptr %3, ptr %5, align 8, !tbaa !16
  %10 = load ptr, ptr %6, align 8, !tbaa !3
  %11 = tail call i32 @CRYPTO_THREAD_read_lock(ptr noundef %10) #8
  %.not45 = icmp eq i32 %11, 0
  br i1 %.not45, label %12, label %13

12:                                               ; preds = %8
  tail call void @ERR_new() #8
  tail call void @ERR_set_debug(ptr noundef nonnull @.str, i32 noundef 157, ptr noundef nonnull @__func__.ossl_property_string) #8
  tail call void (i32, i32, ptr, ...) @ERR_set_error(i32 noundef 15, i32 noundef 786703, ptr noundef null) #8
  br label %.thread

13:                                               ; preds = %8
  %14 = call ptr @OPENSSL_LH_retrieve(ptr noundef %9, ptr noundef nonnull %5) #8
  %15 = icmp eq ptr %14, null
  %16 = icmp ne i32 %2, 0
  %or.cond = and i1 %16, %15
  %17 = load ptr, ptr %6, align 8, !tbaa !3
  %18 = call i32 @CRYPTO_THREAD_unlock(ptr noundef %17) #8
  br i1 %or.cond, label %19, label %58

19:                                               ; preds = %13
  %20 = load ptr, ptr %6, align 8, !tbaa !3
  %21 = call i32 @CRYPTO_THREAD_write_lock(ptr noundef %20) #8
  %.not46 = icmp eq i32 %21, 0
  br i1 %.not46, label %22, label %23

22:                                               ; preds = %19
  call void @ERR_new() #8
  call void @ERR_set_debug(ptr noundef nonnull @.str, i32 noundef 164, ptr noundef nonnull @__func__.ossl_property_string) #8
  call void (i32, i32, ptr, ...) @ERR_set_error(i32 noundef 15, i32 noundef 786704, ptr noundef null) #8
  br label %.thread

23:                                               ; preds = %19
  %.v = select i1 %.not, i64 28, i64 24
  %24 = getelementptr inbounds nuw i8, ptr %6, i64 %.v
  %25 = call ptr @OPENSSL_LH_retrieve(ptr noundef %9, ptr noundef nonnull %5) #8
  %26 = icmp eq ptr %25, null
  br i1 %26, label %27, label %.thread56

27:                                               ; preds = %23
  %28 = call i64 @strlen(ptr noundef nonnull readonly dereferenceable(1) %3) #9
  %29 = add i64 %28, 16
  %30 = call noalias ptr @CRYPTO_malloc(i64 noundef %29, ptr noundef nonnull @.str, i32 noundef 128) #8
  %.not.i = icmp eq ptr %30, null
  br i1 %.not.i, label %.thread60, label %31

31:                                               ; preds = %27
  %32 = getelementptr inbounds nuw i8, ptr %30, i64 12
  %33 = add i64 %28, 1
  call void @llvm.memcpy.p0.p0.i64(ptr nonnull align 4 %32, ptr nonnull readonly align 1 %3, i64 %33, i1 false)
  store ptr %32, ptr %30, align 8, !tbaa !16
  %34 = load i32, ptr %24, align 4, !tbaa !19
  %35 = add nsw i32 %34, 1
  store i32 %35, ptr %24, align 4, !tbaa !19
  %36 = getelementptr inbounds nuw i8, ptr %30, i64 8
  store i32 %35, ptr %36, align 8, !tbaa !20
  %37 = icmp eq i32 %35, 0
  br i1 %37, label %38, label %new_property_string.exit

38:                                               ; preds = %31
  call void @CRYPTO_free(ptr noundef nonnull %30, ptr noundef nonnull @.str, i32 noundef 135) #8
  br label %.thread60

.thread60:                                        ; preds = %27, %38
  %39 = load ptr, ptr %6, align 8, !tbaa !3
  %40 = call i32 @CRYPTO_THREAD_unlock(ptr noundef %39) #8
  br label %.thread

new_property_string.exit:                         ; preds = %31
  %.in48.v = select i1 %.not, i64 40, i64 32
  %.in48 = getelementptr inbounds nuw i8, ptr %6, i64 %.in48.v
  %41 = load ptr, ptr %.in48, align 8, !tbaa !21
  %42 = call i32 @OPENSSL_sk_push(ptr noundef %41, ptr noundef nonnull %32) #8
  %43 = icmp slt i32 %42, 1
  br i1 %43, label %44, label %47

44:                                               ; preds = %new_property_string.exit
  call void @CRYPTO_free(ptr noundef nonnull %30, ptr noundef nonnull @.str, i32 noundef 62) #8
  %45 = load ptr, ptr %6, align 8, !tbaa !3
  %46 = call i32 @CRYPTO_THREAD_unlock(ptr noundef %45) #8
  br label %.thread

47:                                               ; preds = %new_property_string.exit
  %48 = call ptr @OPENSSL_LH_insert(ptr noundef %9, ptr noundef nonnull %30) #8
  %49 = call i32 @OPENSSL_LH_error(ptr noundef %9) #8
  %.not49 = icmp eq i32 %49, 0
  br i1 %.not49, label %.thread56, label %50

50:                                               ; preds = %47
  %51 = call ptr @OPENSSL_sk_pop(ptr noundef %41) #8
  call void @CRYPTO_free(ptr noundef nonnull %30, ptr noundef nonnull @.str, i32 noundef 62) #8
  %52 = load i32, ptr %24, align 4, !tbaa !19
  %53 = add nsw i32 %52, -1
  store i32 %53, ptr %24, align 4, !tbaa !19
  %54 = load ptr, ptr %6, align 8, !tbaa !3
  %55 = call i32 @CRYPTO_THREAD_unlock(ptr noundef %54) #8
  br label %.thread

.thread56:                                        ; preds = %23, %47
  %.040.ph = phi ptr [ %30, %47 ], [ %25, %23 ]
  %56 = load ptr, ptr %6, align 8, !tbaa !3
  %57 = call i32 @CRYPTO_THREAD_unlock(ptr noundef %56) #8
  br label %59

58:                                               ; preds = %13
  br i1 %15, label %.thread, label %59

59:                                               ; preds = %.thread56, %58
  %.04059 = phi ptr [ %.040.ph, %.thread56 ], [ %14, %58 ]
  %60 = getelementptr inbounds nuw i8, ptr %.04059, i64 8
  %61 = load i32, ptr %60, align 8, !tbaa !20
  br label %.thread

.thread:                                          ; preds = %50, %44, %.thread60, %59, %58, %4, %22, %12
  %.0 = phi i32 [ 0, %22 ], [ 0, %12 ], [ 0, %4 ], [ %61, %59 ], [ 0, %58 ], [ 0, %.thread60 ], [ 0, %44 ], [ 0, %50 ]
  call void @llvm.lifetime.end.p0(i64 16, ptr nonnull %5) #8
  ret i32 %.0
}